; Function Attrs: null_pointer_is_valid sspstrong uwtable
define internal void @post_update_interface_config_cb() #0 {
  %1 = load ptr, ptr @data_asam_cmp_interfaces, align 8
  %.not.i = icmp eq ptr %1, null
  br i1 %.not.i, label %reset_interface_config_cb.exit, label %2

2:                                                ; preds = %0
  tail call void @g_hash_table_destroy(ptr noundef nonnull %1)
  store ptr null, ptr @data_asam_cmp_interfaces, align 8
  br label %reset_interface_config_cb.exit

reset_interface_config_cb.exit:                   ; preds = %0, %2
  %3 = tail call ptr @g_hash_table_new_full(ptr noundef nonnull @g_direct_hash, ptr noundef nonnull @g_direct_equal, ptr noundef null, ptr noundef null)
  store ptr %3, ptr @data_asam_cmp_interfaces, align 8
  %4 = load i32, ptr @asam_cmp_interface_num, align 4
  %.not = icmp eq i32 %4, 0
  br i1 %.not, label %._crit_edge, label %.lr.ph

._crit_edge:                                      ; preds = %.lr.ph, %reset_interface_config_cb.exit
  ret void

.lr.ph:                                           ; preds = %reset_interface_config_cb.exit, %.lr.ph
  %indvars.iv = phi i64 [ %indvars.iv.next, %.lr.ph ], [ 0, %reset_interface_config_cb.exit ]
  %5 = load ptr, ptr @data_asam_cmp_interfaces, align 8
  %6 = load ptr, ptr @asam_cmp_interfaces, align 8
  %7 = getelementptr %struct._interface_config, ptr %6, i64 %indvars.iv
  %8 = load i32, ptr %7, align 8
  %9 = zext i32 %8 to i64
  %10 = inttoptr i64 %9 to ptr
  %11 = tail call i32 @g_hash_table_insert(ptr noundef %5, ptr noundef %10, ptr noundef %7)
  %indvars.iv.next = add nuw nsw i64 %indvars.iv, 1
  %12 = load i32, ptr @asam_cmp_interface_num, align 4
  %13 = zext i32 %12 to i64
  %14 = icmp samesign ult i64 %indvars.iv.next, %13
  br i1 %14, label %.lr.ph, label %._crit_edge, !llvm.loop !8
}